target datalayout = "e-m:e-p270:32:32-p271:32:32-p272:64:64-i64:64-i128:128-f80:128-n8:16:32:64-S128"
target triple = "x86_64-pc-linux-gnu"

@proto_register_dcom_cba_acco.ett3 = internal global [3 x ptr] zeroinitializer, align 16
@proto_register_dcom_cba_acco.ett4 = internal global [4 x ptr] zeroinitializer, align 16
@proto_register_dcom_cba_acco.ett5 = internal global [5 x ptr] zeroinitializer, align 16
@ett_ICBAAccoMgt = internal global i32 0, align 4
@ett_cba_addconnectionin = hidden global i32 0, align 4
@ett_cba_addconnectionout = hidden global i32 0, align 4
@ett_cba_getidout = hidden global i32 0, align 4
@ett_cba_getconnectionout = hidden global i32 0, align 4
@.str.174 = private unnamed_addr constant [12 x i8] c"ICBAAccoMgt\00", align 1
@.str.175 = private unnamed_addr constant [13 x i8] c"cba_acco_mgt\00", align 1
@proto_ICBAAccoMgt = internal global i32 0, align 4
@.str.176 = private unnamed_addr constant [13 x i8] c"ICBAAccoMgt2\00", align 1
@.str.177 = private unnamed_addr constant [14 x i8] c"cba_acco_mgt2\00", align 1
@proto_ICBAAccoMgt2 = internal global i32 0, align 4
@ett_ICBAAccoCallback = internal global i32 0, align 4
@ett_ICBAAccoCallback_Item = internal global i32 0, align 4
@ett_ICBAAccoCallback_Buffer = internal global i32 0, align 4
@.str.178 = private unnamed_addr constant [17 x i8] c"ICBAAccoCallback\00", align 1
@.str.179 = private unnamed_addr constant [11 x i8] c"ICBAAccoCB\00", align 1
@.str.180 = private unnamed_addr constant [12 x i8] c"cba_acco_cb\00", align 1
@proto_ICBAAccoCallback = internal global i32 0, align 4
@.str.181 = private unnamed_addr constant [18 x i8] c"ICBAAccoCallback2\00", align 1
@.str.182 = private unnamed_addr constant [12 x i8] c"ICBAAccoCB2\00", align 1
@.str.183 = private unnamed_addr constant [13 x i8] c"cba_acco_cb2\00", align 1
@proto_ICBAAccoCallback2 = internal global i32 0, align 4
@ett_ICBAAccoServer = internal global i32 0, align 4
@ett_cba_connectin = hidden global i32 0, align 4
@ett_cba_connectout = hidden global i32 0, align 4
@ett_cba_getprovconnout = hidden global i32 0, align 4
@.str.184 = private unnamed_addr constant [15 x i8] c"ICBAAccoServer\00", align 1
@.str.185 = private unnamed_addr constant [13 x i8] c"ICBAAccoServ\00", align 1
@.str.186 = private unnamed_addr constant [16 x i8] c"cba_acco_server\00", align 1
@proto_ICBAAccoServer = internal global i32 0, align 4
@.str.187 = private unnamed_addr constant [16 x i8] c"ICBAAccoServer2\00", align 1
@.str.188 = private unnamed_addr constant [14 x i8] c"ICBAAccoServ2\00", align 1
@.str.189 = private unnamed_addr constant [17 x i8] c"cba_acco_server2\00", align 1
@proto_ICBAAccoServer2 = internal global i32 0, align 4
@ett_ICBAAccoServerSRT = internal global i32 0, align 4
@ett_cba_acco_serversrt_cr_flags = hidden global i32 0, align 4
@ett_cba_connectincr = hidden global i32 0, align 4
@ett_cba_connectoutcr = hidden global i32 0, align 4
@.str.190 = private unnamed_addr constant [18 x i8] c"ICBAAccoServerSRT\00", align 1
@.str.191 = private unnamed_addr constant [16 x i8] c"ICBAAccoServSRT\00", align 1
@.str.192 = private unnamed_addr constant [20 x i8] c"cba_acco_server_srt\00", align 1
@proto_ICBAAccoServerSRT = internal global i32 0, align 4
@ett_ICBAAccoSync = internal global i32 0, align 4
@ett_cba_readitemout = hidden global i32 0, align 4
@ett_cba_writeitemin = hidden global i32 0, align 4
@ett_cba_frame_info = hidden global i32 0, align 4
@ett_cba_conn_info = hidden global i32 0, align 4
@.str.193 = private unnamed_addr constant [13 x i8] c"ICBAAccoSync\00", align 1
@.str.194 = private unnamed_addr constant [14 x i8] c"cba_acco_sync\00", align 1
@proto_ICBAAccoSync = internal global i32 0, align 4
@.str.195 = private unnamed_addr constant [4 x i8] c"cba\00", align 1
@.str.196 = private unnamed_addr constant [7 x i8] c"PN-CBA\00", align 1

; Function Attrs: null_pointer_is_valid sspstrong uwtable
define hidden void @proto_register_dcom_cba_acco() #0 {
  %1 = alloca ptr, align 8
  call void @llvm.lifetime.start.p0(i64 8, ptr %1) #12
  store ptr @ett_ICBAAccoMgt, ptr @proto_register_dcom_cba_acco.ett5, align 16
  store ptr @ett_cba_addconnectionin, ptr getelementptr ([5 x ptr], ptr @proto_register_dcom_cba_acco.ett5, i64 0, i64 1), align 8
  store ptr @ett_cba_addconnectionout, ptr getelementptr ([5 x ptr], ptr @proto_register_dcom_cba_acco.ett5, i64 0, i64 2), align 16
  store ptr @ett_cba_getidout, ptr getelementptr ([5 x ptr], ptr @proto_register_dcom_cba_acco.ett5, i64 0, i64 3), align 8
  store ptr @ett_cba_getconnectionout, ptr getelementptr ([5 x ptr], ptr @proto_register_dcom_cba_acco.ett5, i64 0, i64 4), align 16
  %2 = call i32 @proto_register_protocol(ptr noundef @.str.174, ptr noundef @.str.174, ptr noundef @.str.175)
  store i32 %2, ptr @proto_ICBAAccoMgt, align 4
  %3 = load i32, ptr @proto_ICBAAccoMgt, align 4
  call void @proto_register_field_array(i32 noundef %3, ptr noundef @proto_register_dcom_cba_acco.hf_cba_acco_array, i32 noundef 20)
  %4 = load i32, ptr @proto_ICBAAccoMgt, align 4
  call void @proto_register_field_array(i32 noundef %4, ptr noundef @proto_register_dcom_cba_acco.hf_cba_connect_array, i32 noundef 23)
  %5 = load i32, ptr @proto_ICBAAccoMgt, align 4
  call void @proto_register_field_array(i32 noundef %5, ptr noundef @proto_register_dcom_cba_acco.hf_cba_connectcr_array, i32 noundef 1)
  call void @proto_register_subtree_array(ptr noundef @proto_register_dcom_cba_acco.ett5, i32 noundef 5)
  %6 = load i32, ptr @proto_ICBAAccoMgt, align 4
  %7 = call ptr @expert_register_protocol(i32 noundef %6)
  store ptr %7, ptr %1, align 8
  %8 = load ptr, ptr %1, align 8
  call void @expert_register_field_array(ptr noundef %8, ptr noundef @proto_register_dcom_cba_acco.ei, i32 noundef 10)
  %9 = call i32 @proto_register_protocol(ptr noundef @.str.176, ptr noundef @.str.176, ptr noundef @.str.177)
  store i32 %9, ptr @proto_ICBAAccoMgt2, align 4
  store ptr @ett_ICBAAccoCallback, ptr @proto_register_dcom_cba_acco.ett3, align 16
  store ptr @ett_ICBAAccoCallback_Item, ptr getelementptr ([3 x ptr], ptr @proto_register_dcom_cba_acco.ett3, i64 0, i64 1), align 8
  store ptr @ett_ICBAAccoCallback_Buffer, ptr getelementptr ([3 x ptr], ptr @proto_register_dcom_cba_acco.ett3, i64 0, i64 2), align 16
  %10 = call i32 @proto_register_protocol(ptr noundef @.str.178, ptr noundef @.str.179, ptr noundef @.str.180)
  store i32 %10, ptr @proto_ICBAAccoCallback, align 4
  %11 = load i32, ptr @proto_ICBAAccoCallback, align 4
  call void @proto_register_field_array(i32 noundef %11, ptr noundef @proto_register_dcom_cba_acco.hf_cba_acco_cb, i32 noundef 16)
  call void @proto_register_subtree_array(ptr noundef @proto_register_dcom_cba_acco.ett3, i32 noundef 3)
  %12 = call i32 @proto_register_protocol(ptr noundef @.str.181, ptr noundef @.str.182, ptr noundef @.str.183)
  store i32 %12, ptr @proto_ICBAAccoCallback2, align 4
  store ptr @ett_ICBAAccoServer, ptr @proto_register_dcom_cba_acco.ett4, align 16
  store ptr @ett_cba_connectin, ptr getelementptr ([4 x ptr], ptr @proto_register_dcom_cba_acco.ett4, i64 0, i64 1), align 8
  store ptr @ett_cba_connectout, ptr getelementptr ([4 x ptr], ptr @proto_register_dcom_cba_acco.ett4, i64 0, i64 2), align 16
  store ptr @ett_cba_getprovconnout, ptr getelementptr ([4 x ptr], ptr @proto_register_dcom_cba_acco.ett4, i64 0, i64 3), align 8
  %13 = call i32 @proto_register_protocol(ptr noundef @.str.184, ptr noundef @.str.185, ptr noundef @.str.186)
  store i32 %13, ptr @proto_ICBAAccoServer, align 4
  %14 = load i32, ptr @proto_ICBAAccoServer, align 4
  call void @proto_register_field_array(i32 noundef %14, ptr noundef @proto_register_dcom_cba_acco.hf_cba_acco_server, i32 noundef 12)
  call void @proto_register_subtree_array(ptr noundef @proto_register_dcom_cba_acco.ett4, i32 noundef 4)
  %15 = call i32 @proto_register_protocol(ptr noundef @.str.187, ptr noundef @.str.188, ptr noundef @.str.189)
  store i32 %15, ptr @proto_ICBAAccoServer2, align 4
  store ptr @ett_ICBAAccoServerSRT, ptr @proto_register_dcom_cba_acco.ett4, align 16
  store ptr @ett_cba_acco_serversrt_cr_flags, ptr getelementptr ([4 x ptr], ptr @proto_register_dcom_cba_acco.ett4, i64 0, i64 1), align 8
  store ptr @ett_cba_connectincr, ptr getelementptr ([4 x ptr], ptr @proto_register_dcom_cba_acco.ett4, i64 0, i64 2), align 16
  store ptr @ett_cba_connectoutcr, ptr getelementptr ([4 x ptr], ptr @proto_register_dcom_cba_acco.ett4, i64 0, i64 3), align 8
  %16 = call i32 @proto_register_protocol(ptr noundef @.str.190, ptr noundef @.str.191, ptr noundef @.str.192)
  store i32 %16, ptr @proto_ICBAAccoServerSRT, align 4
  call void @proto_register_subtree_array(ptr noundef @proto_register_dcom_cba_acco.ett4, i32 noundef 4)
  store ptr @ett_ICBAAccoSync, ptr @proto_register_dcom_cba_acco.ett5, align 16
  store ptr @ett_cba_readitemout, ptr getelementptr ([5 x ptr], ptr @proto_register_dcom_cba_acco.ett5, i64 0, i64 1), align 8
  store ptr @ett_cba_writeitemin, ptr getelementptr ([5 x ptr], ptr @proto_register_dcom_cba_acco.ett5, i64 0, i64 2), align 16
  store ptr @ett_cba_frame_info, ptr getelementptr ([5 x ptr], ptr @proto_register_dcom_cba_acco.ett5, i64 0, i64 3), align 8
  store ptr @ett_cba_conn_info, ptr getelementptr ([5 x ptr], ptr @proto_register_dcom_cba_acco.ett5, i64 0, i64 4), align 16
  %17 = call i32 @proto_register_protocol(ptr noundef @.str.193, ptr noundef @.str.193, ptr noundef @.str.194)
  store i32 %17, ptr @proto_ICBAAccoSync, align 4
  call void @proto_register_subtree_array(ptr noundef @proto_register_dcom_cba_acco.ett5, i32 noundef 5)
  call void @register_conversation_filter(ptr noundef @.str.195, ptr noundef @.str.196, ptr noundef @cba_filter_valid, ptr noundef @cba_build_filter, ptr noundef null)
  call void @llvm.lifetime.end.p0(i64 8, ptr %1) #12
  ret void
}