; Function Attrs: null_pointer_is_valid sspstrong uwtable
define hidden void @proto_register_dcom_cba_acco() local_unnamed_addr #0 {
  store ptr @ett_ICBAAccoMgt, ptr @proto_register_dcom_cba_acco.ett5, align 16
  store ptr @ett_cba_addconnectionin, ptr getelementptr inbounds nuw (i8, ptr @proto_register_dcom_cba_acco.ett5, i64 8), align 8
  store ptr @ett_cba_addconnectionout, ptr getelementptr inbounds nuw (i8, ptr @proto_register_dcom_cba_acco.ett5, i64 16), align 16
  store ptr @ett_cba_getidout, ptr getelementptr inbounds nuw (i8, ptr @proto_register_dcom_cba_acco.ett5, i64 24), align 8
  store ptr @ett_cba_getconnectionout, ptr getelementptr inbounds nuw (i8, ptr @proto_register_dcom_cba_acco.ett5, i64 32), align 16
  %1 = tail call i32 @proto_register_protocol(ptr noundef nonnull @.str.174, ptr noundef nonnull @.str.174, ptr noundef nonnull @.str.175)
  store i32 %1, ptr @proto_ICBAAccoMgt, align 4
  tail call void @proto_register_field_array(i32 noundef %1, ptr noundef nonnull @proto_register_dcom_cba_acco.hf_cba_acco_array, i32 noundef 20)
  %2 = load i32, ptr @proto_ICBAAccoMgt, align 4
  tail call void @proto_register_field_array(i32 noundef %2, ptr noundef nonnull @proto_register_dcom_cba_acco.hf_cba_connect_array, i32 noundef 23)
  %3 = load i32, ptr @proto_ICBAAccoMgt, align 4
  tail call void @proto_register_field_array(i32 noundef %3, ptr noundef nonnull @proto_register_dcom_cba_acco.hf_cba_connectcr_array, i32 noundef 1)
  tail call void @proto_register_subtree_array(ptr noundef nonnull @proto_register_dcom_cba_acco.ett5, i32 noundef 5)
  %4 = load i32, ptr @proto_ICBAAccoMgt, align 4
  %5 = tail call ptr @expert_register_protocol(i32 noundef %4)
  tail call void @expert_register_field_array(ptr noundef %5, ptr noundef nonnull @proto_register_dcom_cba_acco.ei, i32 noundef 10)
  %6 = tail call i32 @proto_register_protocol(ptr noundef nonnull @.str.176, ptr noundef nonnull @.str.176, ptr noundef nonnull @.str.177)
  store i32 %6, ptr @proto_ICBAAccoMgt2, align 4
  store ptr @ett_ICBAAccoCallback, ptr @proto_register_dcom_cba_acco.ett3, align 16
  store ptr @ett_ICBAAccoCallback_Item, ptr getelementptr inbounds nuw (i8, ptr @proto_register_dcom_cba_acco.ett3, i64 8), align 8
  store ptr @ett_ICBAAccoCallback_Buffer, ptr getelementptr inbounds nuw (i8, ptr @proto_register_dcom_cba_acco.ett3, i64 16), align 16
  %7 = tail call i32 @proto_register_protocol(ptr noundef nonnull @.str.178, ptr noundef nonnull @.str.179, ptr noundef nonnull @.str.180)
  store i32 %7, ptr @proto_ICBAAccoCallback, align 4
  tail call void @proto_register_field_array(i32 noundef %7, ptr noundef nonnull @proto_register_dcom_cba_acco.hf_cba_acco_cb, i32 noundef 16)
  tail call void @proto_register_subtree_array(ptr noundef nonnull @proto_register_dcom_cba_acco.ett3, i32 noundef 3)
  %8 = tail call i32 @proto_register_protocol(ptr noundef nonnull @.str.181, ptr noundef nonnull @.str.182, ptr noundef nonnull @.str.183)
  store i32 %8, ptr @proto_ICBAAccoCallback2, align 4
  store ptr @ett_ICBAAccoServer, ptr @proto_register_dcom_cba_acco.ett4, align 16
  store ptr @ett_cba_connectin, ptr getelementptr inbounds nuw (i8, ptr @proto_register_dcom_cba_acco.ett4, i64 8), align 8
  store ptr @ett_cba_connectout, ptr getelementptr inbounds nuw (i8, ptr @proto_register_dcom_cba_acco.ett4, i64 16), align 16
  store ptr @ett_cba_getprovconnout, ptr getelementptr inbounds nuw (i8, ptr @proto_register_dcom_cba_acco.ett4, i64 24), align 8
  %9 = tail call i32 @proto_register_protocol(ptr noundef nonnull @.str.184, ptr noundef nonnull @.str.185, ptr noundef nonnull @.str.186)
  store i32 %9, ptr @proto_ICBAAccoServer, align 4
  tail call void @proto_register_field_array(i32 noundef %9, ptr noundef nonnull @proto_register_dcom_cba_acco.hf_cba_acco_server, i32 noundef 12)
  tail call void @proto_register_subtree_array(ptr noundef nonnull @proto_register_dcom_cba_acco.ett4, i32 noundef 4)
  %10 = tail call i32 @proto_register_protocol(ptr noundef nonnull @.str.187, ptr noundef nonnull @.str.188, ptr noundef nonnull @.str.189)
  store i32 %10, ptr @proto_ICBAAccoServer2, align 4
  store ptr @ett_ICBAAccoServerSRT, ptr @proto_register_dcom_cba_acco.ett4, align 16
  store ptr @ett_cba_acco_serversrt_cr_flags, ptr getelementptr inbounds nuw (i8, ptr @proto_register_dcom_cba_acco.ett4, i64 8), align 8
  store ptr @ett_cba_connectincr, ptr getelementptr inbounds nuw (i8, ptr @proto_register_dcom_cba_acco.ett4, i64 16), align 16
  store ptr @ett_cba_connectoutcr, ptr getelementptr inbounds nuw (i8, ptr @proto_register_dcom_cba_acco.ett4, i64 24), align 8
  %11 = tail call i32 @proto_register_protocol(ptr noundef nonnull @.str.190, ptr noundef nonnull @.str.191, ptr noundef nonnull @.str.192)
  store i32 %11, ptr @proto_ICBAAccoServerSRT, align 4
  tail call void @proto_register_subtree_array(ptr noundef nonnull @proto_register_dcom_cba_acco.ett4, i32 noundef 4)
  store ptr @ett_ICBAAccoSync, ptr @proto_register_dcom_cba_acco.ett5, align 16
  store ptr @ett_cba_readitemout, ptr getelementptr inbounds nuw (i8, ptr @proto_register_dcom_cba_acco.ett5, i64 8), align 8
  store ptr @ett_cba_writeitemin, ptr getelementptr inbounds nuw (i8, ptr @proto_register_dcom_cba_acco.ett5, i64 16), align 16
  store ptr @ett_cba_frame_info, ptr getelementptr inbounds nuw (i8, ptr @proto_register_dcom_cba_acco.ett5, i64 24), align 8
  store ptr @ett_cba_conn_info, ptr getelementptr inbounds nuw (i8, ptr @proto_register_dcom_cba_acco.ett5, i64 32), align 16
  %12 = tail call i32 @proto_register_protocol(ptr noundef nonnull @.str.193, ptr noundef nonnull @.str.193, ptr noundef nonnull @.str.194)
  store i32 %12, ptr @proto_ICBAAccoSync, align 4
  tail call void @proto_register_subtree_array(ptr noundef nonnull @proto_register_dcom_cba_acco.ett5, i32 noundef 5)
  tail call void @register_conversation_filter(ptr noundef nonnull @.str.195, ptr noundef nonnull @.str.196, ptr noundef nonnull @cba_filter_valid, ptr noundef nonnull @cba_build_filter, ptr noundef null)
  ret void
}